; ModuleID = 'bench/openjdk/original/zUtils.ll'
source_filename = "bench/openjdk/original/zUtils.ll"
target datalayout = "e-m:e-p270:32:32-p271:32:32-p272:64:64-i64:64-i128:128-f80:128-n8:16:32:64-S128"
target triple = "x86_64-pc-linux-gnu"

@_ZN6Thread12_thr_currentE = external thread_local local_unnamed_addr global ptr, align 8
@llvm.global_ctors = appending global [0 x { i32, ptr, ptr }] zeroinitializer

; Function Attrs: mustprogress nounwind uwtable
define hidden noundef ptr @_ZN6ZUtils11thread_nameEv() local_unnamed_addr #0 align 2 {
  %1 = tail call align 8 ptr @llvm.threadlocal.address.p0(ptr align 8 @_ZN6Thread12_thr_currentE)
  %2 = load ptr, ptr %1, align 8
  %3 = load ptr, ptr %2, align 8
  %4 = getelementptr inbounds i8, ptr %3, i64 112
  %5 = load ptr, ptr %4, align 8
  %6 = tail call noundef zeroext i1 %5(ptr noundef nonnull align 8 dereferenceable(888) %2) #3
  %7 = load ptr, ptr %2, align 8
  br i1 %6, label %8, label %12

8:                                                ; preds = %0
  %9 = getelementptr inbounds i8, ptr %7, i64 168
  %10 = load ptr, ptr %9, align 8
  %11 = tail call noundef ptr %10(ptr noundef nonnull align 8 dereferenceable(916) %2) #3
  br label %16

12:                                               ; preds = %0
  %13 = getelementptr inbounds i8, ptr %7, i64 176
  %14 = load ptr, ptr %13, align 8
  %15 = tail call noundef ptr %14(ptr noundef nonnull align 8 dereferenceable(888) %2) #3
  br label %16

16:                                               ; preds = %12, %8
  %.0 = phi ptr [ %11, %8 ], [ %15, %12 ]
  ret ptr %.0
}

; Function Attrs: mustprogress nofree norecurse nosync nounwind memory(write, inaccessiblemem: none) uwtable
define hidden void @_ZN6ZUtils4fillEPmmm(ptr noundef writeonly %0, i64 noundef %1, i64 noundef %2) local_unnamed_addr #1 align 2 {
  %4 = icmp eq i64 %1, 0
  br i1 %4, label %_ZSt6fill_nIPmmmET_S1_T0_RKT1_.exit, label %5

5:                                                ; preds = %3
  %6 = getelementptr inbounds i64, ptr %0, i64 %1
  br label %.lr.ph.i.i.i.i

.lr.ph.i.i.i.i:                                   ; preds = %.lr.ph.i.i.i.i, %5
  %.06.i.i.i.i = phi ptr [ %7, %.lr.ph.i.i.i.i ], [ %0, %5 ]
  store i64 %2, ptr %.06.i.i.i.i, align 8
  %7 = getelementptr inbounds i8, ptr %.06.i.i.i.i, i64 8
  %.not.i.i.i.i = icmp eq ptr %7, %6
  br i1 %.not.i.i.i.i, label %_ZSt6fill_nIPmmmET_S1_T0_RKT1_.exit, label %.lr.ph.i.i.i.i, !llvm.loop !6

_ZSt6fill_nIPmmmET_S1_T0_RKT1_.exit:              ; preds = %.lr.ph.i.i.i.i, %3
  ret void
}

; Function Attrs: mustprogress nocallback nofree nosync nounwind speculatable willreturn memory(none)
declare nonnull ptr @llvm.threadlocal.address.p0(ptr nonnull) #2


!llvm.module.flags = !{!0, !1, !2, !3, !4, !5}

!0 = !{i32 7, !"Dwarf Version", i32 5}
!1 = !{i32 2, !"Debug Info Version", i32 3}
!2 = !{i32 1, !"wchar_size", i32 4}
!3 = !{i32 8, !"PIC Level", i32 2}
!4 = !{i32 7, !"uwtable", i32 2}
!5 = !{i32 7, !"frame-pointer", i32 2}
!6 = distinct !{!6, !7}
!7 = !{!"llvm.loop.mustprogress"}
